target datalayout = "e-m:e-p270:32:32-p271:32:32-p272:64:64-i64:64-i128:128-f80:128-n8:16:32:64-S128"
target triple = "x86_64-pc-linux-gnu"

%"class.duckdb_re2::Regexp::ParseState" = type { i32, %"class.duckdb_re2::StringPiece", ptr, ptr, i32, i32 }
%"class.duckdb_re2::StringPiece" = type { ptr, i64 }
%"class.duckdb_re2::Regexp" = type { i8, i8, i16, i16, i16, %union.anon, ptr, %union.anon.0 }
%union.anon = type { ptr }
%union.anon.0 = type { %struct.anon.1 }
%struct.anon.1 = type { i32, ptr }
%struct.anon.2 = type { i32, ptr }

; Function Attrs: mustprogress uwtable
define hidden noundef zeroext i1 @_ZN10duckdb_re26Regexp10ParseState17MaybeConcatStringEiNS0_10ParseFlagsE(ptr noundef nonnull align 8 dereferenceable(48) %0, i32 noundef %1, i32 noundef %2) #1 align 2 {
  %4 = alloca i1, align 1
  %5 = alloca ptr, align 8
  %6 = alloca i32, align 4
  %7 = alloca i32, align 4
  %8 = alloca ptr, align 8
  %9 = alloca ptr, align 8
  %10 = alloca i32, align 4
  %11 = alloca i32, align 4
  %12 = alloca i32, align 4
  store ptr %0, ptr %5, align 8, !tbaa !7
  store i32 %1, ptr %6, align 4, !tbaa !3
  store i32 %2, ptr %7, align 4, !tbaa !10
  %13 = load ptr, ptr %5, align 8
  call void @llvm.lifetime.start.p0(i64 8, ptr %8) #19
  call void @llvm.lifetime.start.p0(i64 8, ptr %9) #19
  %14 = getelementptr inbounds nuw %"class.duckdb_re2::Regexp::ParseState", ptr %13, i32 0, i32 3
  %15 = load ptr, ptr %14, align 8, !tbaa !26
  store ptr %15, ptr %8, align 8, !tbaa !29
  %16 = icmp eq ptr %15, null
  br i1 %16, label %22, label %17

17:                                               ; preds = %3
  %18 = load ptr, ptr %8, align 8, !tbaa !29
  %19 = getelementptr inbounds nuw %"class.duckdb_re2::Regexp", ptr %18, i32 0, i32 6
  %20 = load ptr, ptr %19, align 8, !tbaa !30
  store ptr %20, ptr %9, align 8, !tbaa !29
  %21 = icmp eq ptr %20, null
  br i1 %21, label %22, label %23

22:                                               ; preds = %17, %3
  store i1 false, ptr %4, align 1
  store i32 1, ptr %10, align 4
  br label %146

23:                                               ; preds = %17
  %24 = load ptr, ptr %8, align 8, !tbaa !29
  %25 = getelementptr inbounds nuw %"class.duckdb_re2::Regexp", ptr %24, i32 0, i32 0
  %26 = load i8, ptr %25, align 8, !tbaa !36
  %27 = zext i8 %26 to i32
  %28 = icmp ne i32 %27, 3
  br i1 %28, label %29, label %36

29:                                               ; preds = %23
  %30 = load ptr, ptr %8, align 8, !tbaa !29
  %31 = getelementptr inbounds nuw %"class.duckdb_re2::Regexp", ptr %30, i32 0, i32 0
  %32 = load i8, ptr %31, align 8, !tbaa !36
  %33 = zext i8 %32 to i32
  %34 = icmp ne i32 %33, 4
  br i1 %34, label %35, label %36

35:                                               ; preds = %29
  store i1 false, ptr %4, align 1
  store i32 1, ptr %10, align 4
  br label %146

36:                                               ; preds = %29, %23
  %37 = load ptr, ptr %9, align 8, !tbaa !29
  %38 = getelementptr inbounds nuw %"class.duckdb_re2::Regexp", ptr %37, i32 0, i32 0
  %39 = load i8, ptr %38, align 8, !tbaa !36
  %40 = zext i8 %39 to i32
  %41 = icmp ne i32 %40, 3
  br i1 %41, label %42, label %49

42:                                               ; preds = %36
  %43 = load ptr, ptr %9, align 8, !tbaa !29
  %44 = getelementptr inbounds nuw %"class.duckdb_re2::Regexp", ptr %43, i32 0, i32 0
  %45 = load i8, ptr %44, align 8, !tbaa !36
  %46 = zext i8 %45 to i32
  %47 = icmp ne i32 %46, 4
  br i1 %47, label %48, label %49

48:                                               ; preds = %42
  store i1 false, ptr %4, align 1
  store i32 1, ptr %10, align 4
  br label %146

49:                                               ; preds = %42, %36
  %50 = load ptr, ptr %8, align 8, !tbaa !29
  %51 = getelementptr inbounds nuw %"class.duckdb_re2::Regexp", ptr %50, i32 0, i32 2
  %52 = load i16, ptr %51, align 2, !tbaa !44
  %53 = zext i16 %52 to i32
  %54 = and i32 %53, 1
  %55 = load ptr, ptr %9, align 8, !tbaa !29
  %56 = getelementptr inbounds nuw %"class.duckdb_re2::Regexp", ptr %55, i32 0, i32 2
  %57 = load i16, ptr %56, align 2, !tbaa !44
  %58 = zext i16 %57 to i32
  %59 = and i32 %58, 1
  %60 = icmp ne i32 %54, %59
  br i1 %60, label %61, label %62

61:                                               ; preds = %49
  store i1 false, ptr %4, align 1
  store i32 1, ptr %10, align 4
  br label %146

62:                                               ; preds = %49
  %63 = load ptr, ptr %9, align 8, !tbaa !29
  %64 = getelementptr inbounds nuw %"class.duckdb_re2::Regexp", ptr %63, i32 0, i32 0
  %65 = load i8, ptr %64, align 8, !tbaa !36
  %66 = zext i8 %65 to i32
  %67 = icmp eq i32 %66, 3
  br i1 %67, label %68, label %82

68:                                               ; preds = %62
  call void @llvm.lifetime.start.p0(i64 4, ptr %11) #19
  %69 = load ptr, ptr %9, align 8, !tbaa !29
  %70 = getelementptr inbounds nuw %"class.duckdb_re2::Regexp", ptr %69, i32 0, i32 7
  %71 = load i32, ptr %70, align 8, !tbaa !33
  store i32 %71, ptr %11, align 4, !tbaa !3
  %72 = load ptr, ptr %9, align 8, !tbaa !29
  %73 = getelementptr inbounds nuw %"class.duckdb_re2::Regexp", ptr %72, i32 0, i32 0
  store i8 4, ptr %73, align 8, !tbaa !36
  %74 = load ptr, ptr %9, align 8, !tbaa !29
  %75 = getelementptr inbounds nuw %"class.duckdb_re2::Regexp", ptr %74, i32 0, i32 7
  %76 = getelementptr inbounds nuw %struct.anon.2, ptr %75, i32 0, i32 0
  store i32 0, ptr %76, align 8, !tbaa !33
  %77 = load ptr, ptr %9, align 8, !tbaa !29
  %78 = getelementptr inbounds nuw %"class.duckdb_re2::Regexp", ptr %77, i32 0, i32 7
  %79 = getelementptr inbounds nuw %struct.anon.2, ptr %78, i32 0, i32 1
  store ptr null, ptr %79, align 8, !tbaa !33
  %80 = load ptr, ptr %9, align 8, !tbaa !29
  %81 = load i32, ptr %11, align 4, !tbaa !3
  call void @_ZN10duckdb_re26Regexp15AddRuneToStringEi(ptr noundef nonnull align 8 dereferenceable(40) %80, i32 noundef %81)
  call void @llvm.lifetime.end.p0(i64 4, ptr %11) #19
  br label %82

82:                                               ; preds = %68, %62
  %83 = load ptr, ptr %8, align 8, !tbaa !29
  %84 = getelementptr inbounds nuw %"class.duckdb_re2::Regexp", ptr %83, i32 0, i32 0
  %85 = load i8, ptr %84, align 8, !tbaa !36
  %86 = zext i8 %85 to i32
  %87 = icmp eq i32 %86, 3
  br i1 %87, label %88, label %93

88:                                               ; preds = %82
  %89 = load ptr, ptr %9, align 8, !tbaa !29
  %90 = load ptr, ptr %8, align 8, !tbaa !29
  %91 = getelementptr inbounds nuw %"class.duckdb_re2::Regexp", ptr %90, i32 0, i32 7
  %92 = load i32, ptr %91, align 8, !tbaa !33
  call void @_ZN10duckdb_re26Regexp15AddRuneToStringEi(ptr noundef nonnull align 8 dereferenceable(40) %89, i32 noundef %92)
  br label %129

93:                                               ; preds = %82
  call void @llvm.lifetime.start.p0(i64 4, ptr %12) #19
  store i32 0, ptr %12, align 4, !tbaa !3
  br label %94

94:                                               ; preds = %112, %93
  %95 = load i32, ptr %12, align 4, !tbaa !3
  %96 = load ptr, ptr %8, align 8, !tbaa !29
  %97 = getelementptr inbounds nuw %"class.duckdb_re2::Regexp", ptr %96, i32 0, i32 7
  %98 = getelementptr inbounds nuw %struct.anon.2, ptr %97, i32 0, i32 0
  %99 = load i32, ptr %98, align 8, !tbaa !33
  %100 = icmp slt i32 %95, %99
  br i1 %100, label %102, label %101

101:                                              ; preds = %94
  store i32 2, ptr %10, align 4
  call void @llvm.lifetime.end.p0(i64 4, ptr %12) #19
  br label %115

102:                                              ; preds = %94
  %103 = load ptr, ptr %9, align 8, !tbaa !29
  %104 = load ptr, ptr %8, align 8, !tbaa !29
  %105 = getelementptr inbounds nuw %"class.duckdb_re2::Regexp", ptr %104, i32 0, i32 7
  %106 = getelementptr inbounds nuw %struct.anon.2, ptr %105, i32 0, i32 1
  %107 = load ptr, ptr %106, align 8, !tbaa !33
  %108 = load i32, ptr %12, align 4, !tbaa !3
  %109 = sext i32 %108 to i64
  %110 = getelementptr inbounds i32, ptr %107, i64 %109
  %111 = load i32, ptr %110, align 4, !tbaa !3
  call void @_ZN10duckdb_re26Regexp15AddRuneToStringEi(ptr noundef nonnull align 8 dereferenceable(40) %103, i32 noundef %111)
  br label %112

112:                                              ; preds = %102
  %113 = load i32, ptr %12, align 4, !tbaa !3
  %114 = add nsw i32 %113, 1
  store i32 %114, ptr %12, align 4, !tbaa !3
  br label %94, !llvm.loop !45

115:                                              ; preds = %101
  %116 = load ptr, ptr %8, align 8, !tbaa !29
  %117 = getelementptr inbounds nuw %"class.duckdb_re2::Regexp", ptr %116, i32 0, i32 7
  %118 = getelementptr inbounds nuw %struct.anon.2, ptr %117, i32 0, i32 0
  store i32 0, ptr %118, align 8, !tbaa !33
  %119 = load ptr, ptr %8, align 8, !tbaa !29
  %120 = getelementptr inbounds nuw %"class.duckdb_re2::Regexp", ptr %119, i32 0, i32 7
  %121 = getelementptr inbounds nuw %struct.anon.2, ptr %120, i32 0, i32 1
  %122 = load ptr, ptr %121, align 8, !tbaa !33
  %123 = icmp eq ptr %122, null
  br i1 %123, label %125, label %124

124:                                              ; preds = %115
  call void @_ZdaPv(ptr noundef %122) #21
  br label %125

125:                                              ; preds = %124, %115
  %126 = load ptr, ptr %8, align 8, !tbaa !29
  %127 = getelementptr inbounds nuw %"class.duckdb_re2::Regexp", ptr %126, i32 0, i32 7
  %128 = getelementptr inbounds nuw %struct.anon.2, ptr %127, i32 0, i32 1
  store ptr null, ptr %128, align 8, !tbaa !33
  br label %129

129:                                              ; preds = %125, %88
  %130 = load i32, ptr %6, align 4, !tbaa !3
  %131 = icmp sge i32 %130, 0
  br i1 %131, label %132, label %142

132:                                              ; preds = %129
  %133 = load ptr, ptr %8, align 8, !tbaa !29
  %134 = getelementptr inbounds nuw %"class.duckdb_re2::Regexp", ptr %133, i32 0, i32 0
  store i8 3, ptr %134, align 8, !tbaa !36
  %135 = load i32, ptr %6, align 4, !tbaa !3
  %136 = load ptr, ptr %8, align 8, !tbaa !29
  %137 = getelementptr inbounds nuw %"class.duckdb_re2::Regexp", ptr %136, i32 0, i32 7
  store i32 %135, ptr %137, align 8, !tbaa !33
  %138 = load i32, ptr %7, align 4, !tbaa !10
  %139 = trunc i32 %138 to i16
  %140 = load ptr, ptr %8, align 8, !tbaa !29
  %141 = getelementptr inbounds nuw %"class.duckdb_re2::Regexp", ptr %140, i32 0, i32 2
  store i16 %139, ptr %141, align 2, !tbaa !44
  store i1 true, ptr %4, align 1
  store i32 1, ptr %10, align 4
  br label %146

142:                                              ; preds = %129
  %143 = load ptr, ptr %9, align 8, !tbaa !29
  %144 = getelementptr inbounds nuw %"class.duckdb_re2::Regexp::ParseState", ptr %13, i32 0, i32 3
  store ptr %143, ptr %144, align 8, !tbaa !26
  %145 = load ptr, ptr %8, align 8, !tbaa !29
  call void @_ZN10duckdb_re26Regexp6DecrefEv(ptr noundef nonnull align 8 dereferenceable(40) %145)
  store i1 false, ptr %4, align 1
  store i32 1, ptr %10, align 4
  br label %146

146:                                              ; preds = %142, %132, %61, %48, %35, %22
  call void @llvm.lifetime.end.p0(i64 8, ptr %9) #19
  call void @llvm.lifetime.end.p0(i64 8, ptr %8) #19
  %147 = load i1, ptr %4, align 1
  ret i1 %147
}