; Function Attrs: mustprogress uwtable
define hidden noundef zeroext i1 @_ZN10duckdb_re26Regexp10ParseState17MaybeConcatStringEiNS0_10ParseFlagsE(ptr noundef nonnull align 8 captures(none) dereferenceable(48) %0, i32 noundef %1, i32 noundef %2) local_unnamed_addr #9 align 2 {
  %4 = getelementptr inbounds nuw i8, ptr %0, i64 32
  %5 = load ptr, ptr %4, align 8, !tbaa !20
  %6 = icmp eq ptr %5, null
  br i1 %6, label %54, label %7

7:                                                ; preds = %3
  %8 = getelementptr inbounds nuw i8, ptr %5, i64 16
  %9 = load ptr, ptr %8, align 8, !tbaa !23
  %10 = icmp eq ptr %9, null
  br i1 %10, label %54, label %11

11:                                               ; preds = %7
  %12 = load i8, ptr %5, align 8, !tbaa !26
  %.off = add i8 %12, -3
  %switch = icmp ult i8 %.off, 2
  br i1 %switch, label %13, label %54

13:                                               ; preds = %11
  %14 = load i8, ptr %9, align 8, !tbaa !26
  %.off46 = add i8 %14, -3
  %switch47 = icmp ult i8 %.off46, 2
  br i1 %switch47, label %15, label %54

15:                                               ; preds = %13
  %16 = getelementptr inbounds nuw i8, ptr %5, i64 2
  %17 = load i16, ptr %16, align 2, !tbaa !50
  %18 = getelementptr inbounds nuw i8, ptr %9, i64 2
  %19 = load i16, ptr %18, align 2, !tbaa !50
  %20 = xor i16 %19, %17
  %21 = and i16 %20, 1
  %.not45 = icmp eq i16 %21, 0
  br i1 %.not45, label %22, label %54

22:                                               ; preds = %15
  %23 = icmp eq i8 %14, 3
  br i1 %23, label %24, label %28

24:                                               ; preds = %22
  %25 = getelementptr inbounds nuw i8, ptr %9, i64 24
  %26 = load i32, ptr %25, align 8, !tbaa !27
  store i8 4, ptr %9, align 8, !tbaa !26
  store i32 0, ptr %25, align 8, !tbaa !27
  %27 = getelementptr inbounds nuw i8, ptr %9, i64 32
  store ptr null, ptr %27, align 8, !tbaa !27
  tail call void @_ZN10duckdb_re26Regexp15AddRuneToStringEi(ptr noundef nonnull align 8 dereferenceable(40) %9, i32 noundef %26)
  %.pre = load i8, ptr %5, align 8, !tbaa !26
  br label %28

28:                                               ; preds = %24, %22
  %29 = phi i8 [ %.pre, %24 ], [ %12, %22 ]
  %30 = icmp eq i8 %29, 3
  %31 = getelementptr inbounds nuw i8, ptr %5, i64 24
  %32 = load i32, ptr %31, align 8, !tbaa !27
  br i1 %30, label %35, label %.preheader

.preheader:                                       ; preds = %28
  %33 = icmp sgt i32 %32, 0
  br i1 %33, label %.lr.ph, label %._crit_edge

.lr.ph:                                           ; preds = %.preheader
  %34 = getelementptr inbounds nuw i8, ptr %5, i64 32
  br label %39

35:                                               ; preds = %28
  tail call void @_ZN10duckdb_re26Regexp15AddRuneToStringEi(ptr noundef nonnull align 8 dereferenceable(40) %9, i32 noundef %32)
  br label %48

._crit_edge:                                      ; preds = %39, %.preheader
  store i32 0, ptr %31, align 8, !tbaa !27
  %36 = getelementptr inbounds nuw i8, ptr %5, i64 32
  %37 = load ptr, ptr %36, align 8, !tbaa !27
  %38 = icmp eq ptr %37, null
  br i1 %38, label %47, label %46

39:                                               ; preds = %.lr.ph, %39
  %indvars.iv = phi i64 [ 0, %.lr.ph ], [ %indvars.iv.next, %39 ]
  %40 = load ptr, ptr %34, align 8, !tbaa !27
  %41 = getelementptr inbounds nuw i32, ptr %40, i64 %indvars.iv
  %42 = load i32, ptr %41, align 4, !tbaa !3
  tail call void @_ZN10duckdb_re26Regexp15AddRuneToStringEi(ptr noundef nonnull align 8 dereferenceable(40) %9, i32 noundef %42)
  %indvars.iv.next = add nuw nsw i64 %indvars.iv, 1
  %43 = load i32, ptr %31, align 8, !tbaa !27
  %44 = sext i32 %43 to i64
  %45 = icmp slt i64 %indvars.iv.next, %44
  br i1 %45, label %39, label %._crit_edge, !llvm.loop !51

46:                                               ; preds = %._crit_edge
  tail call void @_ZdaPv(ptr noundef nonnull %37) #30
  br label %47

47:                                               ; preds = %46, %._crit_edge
  store ptr null, ptr %36, align 8, !tbaa !27
  br label %48

48:                                               ; preds = %47, %35
  %49 = icmp sgt i32 %1, -1
  br i1 %49, label %50, label %53

50:                                               ; preds = %48
  store i8 3, ptr %5, align 8, !tbaa !26
  %51 = getelementptr inbounds nuw i8, ptr %5, i64 24
  store i32 %1, ptr %51, align 8, !tbaa !27
  %52 = trunc i32 %2 to i16
  store i16 %52, ptr %16, align 2, !tbaa !50
  br label %54

53:                                               ; preds = %48
  store ptr %9, ptr %4, align 8, !tbaa !20
  tail call void @_ZN10duckdb_re26Regexp6DecrefEv(ptr noundef nonnull align 8 dereferenceable(40) %5)
  br label %54

54:                                               ; preds = %13, %11, %15, %3, %7, %53, %50
  %.035 = phi i1 [ true, %50 ], [ false, %53 ], [ false, %7 ], [ false, %3 ], [ false, %11 ], [ false, %13 ], [ false, %15 ]
  ret i1 %.035
}